target datalayout = "e-m:e-p270:32:32-p271:32:32-p272:64:64-i64:64-i128:128-f80:128-n8:16:32:64-S128"
target triple = "x86_64-pc-linux-gnu"

%struct.anon = type { [3 x double] }
%struct._generic_N_Vector = type { ptr, ptr, ptr }
%struct._N_VectorContent_Serial = type { i64, i32, ptr }

; Function Attrs: nounwind uwtable
define internal i32 @fB(double noundef %0, ptr noundef %1, ptr noundef %2, ptr noundef %3, ptr noundef %4) #0 {
  %6 = alloca double, align 8
  %7 = alloca ptr, align 8
  %8 = alloca ptr, align 8
  %9 = alloca ptr, align 8
  %10 = alloca ptr, align 8
  %11 = alloca ptr, align 8
  %12 = alloca double, align 8
  %13 = alloca double, align 8
  %14 = alloca double, align 8
  %15 = alloca double, align 8
  %16 = alloca double, align 8
  %17 = alloca double, align 8
  %18 = alloca double, align 8
  %19 = alloca double, align 8
  %20 = alloca double, align 8
  %21 = alloca double, align 8
  store double %0, ptr %6, align 8, !tbaa !18
  store ptr %1, ptr %7, align 8, !tbaa !16
  store ptr %2, ptr %8, align 8, !tbaa !16
  store ptr %3, ptr %9, align 8, !tbaa !16
  store ptr %4, ptr %10, align 8, !tbaa !11
  call void @llvm.lifetime.start.p0(i64 8, ptr %11) #6
  call void @llvm.lifetime.start.p0(i64 8, ptr %12) #6
  call void @llvm.lifetime.start.p0(i64 8, ptr %13) #6
  call void @llvm.lifetime.start.p0(i64 8, ptr %14) #6
  call void @llvm.lifetime.start.p0(i64 8, ptr %15) #6
  call void @llvm.lifetime.start.p0(i64 8, ptr %16) #6
  call void @llvm.lifetime.start.p0(i64 8, ptr %17) #6
  call void @llvm.lifetime.start.p0(i64 8, ptr %18) #6
  call void @llvm.lifetime.start.p0(i64 8, ptr %19) #6
  call void @llvm.lifetime.start.p0(i64 8, ptr %20) #6
  call void @llvm.lifetime.start.p0(i64 8, ptr %21) #6
  %22 = load ptr, ptr %10, align 8, !tbaa !11
  store ptr %22, ptr %11, align 8, !tbaa !11
  %23 = load ptr, ptr %11, align 8, !tbaa !11
  %24 = getelementptr inbounds nuw %struct.anon, ptr %23, i32 0, i32 0
  %25 = getelementptr inbounds [3 x double], ptr %24, i64 0, i64 0
  %26 = load double, ptr %25, align 8, !tbaa !18
  store double %26, ptr %14, align 8, !tbaa !18
  %27 = load ptr, ptr %11, align 8, !tbaa !11
  %28 = getelementptr inbounds nuw %struct.anon, ptr %27, i32 0, i32 0
  %29 = getelementptr inbounds [3 x double], ptr %28, i64 0, i64 1
  %30 = load double, ptr %29, align 8, !tbaa !18
  store double %30, ptr %15, align 8, !tbaa !18
  %31 = load ptr, ptr %11, align 8, !tbaa !11
  %32 = getelementptr inbounds nuw %struct.anon, ptr %31, i32 0, i32 0
  %33 = getelementptr inbounds [3 x double], ptr %32, i64 0, i64 2
  %34 = load double, ptr %33, align 8, !tbaa !18
  store double %34, ptr %16, align 8, !tbaa !18
  %35 = load ptr, ptr %7, align 8, !tbaa !16
  %36 = getelementptr inbounds nuw %struct._generic_N_Vector, ptr %35, i32 0, i32 0
  %37 = load ptr, ptr %36, align 8, !tbaa !22
  %38 = getelementptr inbounds nuw %struct._N_VectorContent_Serial, ptr %37, i32 0, i32 2
  %39 = load ptr, ptr %38, align 8, !tbaa !25
  %40 = getelementptr inbounds double, ptr %39, i64 1
  %41 = load double, ptr %40, align 8, !tbaa !18
  store double %41, ptr %12, align 8, !tbaa !18
  %42 = load ptr, ptr %7, align 8, !tbaa !16
  %43 = getelementptr inbounds nuw %struct._generic_N_Vector, ptr %42, i32 0, i32 0
  %44 = load ptr, ptr %43, align 8, !tbaa !22
  %45 = getelementptr inbounds nuw %struct._N_VectorContent_Serial, ptr %44, i32 0, i32 2
  %46 = load ptr, ptr %45, align 8, !tbaa !25
  %47 = getelementptr inbounds double, ptr %46, i64 2
  %48 = load double, ptr %47, align 8, !tbaa !18
  store double %48, ptr %13, align 8, !tbaa !18
  %49 = load ptr, ptr %8, align 8, !tbaa !16
  %50 = getelementptr inbounds nuw %struct._generic_N_Vector, ptr %49, i32 0, i32 0
  %51 = load ptr, ptr %50, align 8, !tbaa !22
  %52 = getelementptr inbounds nuw %struct._N_VectorContent_Serial, ptr %51, i32 0, i32 2
  %53 = load ptr, ptr %52, align 8, !tbaa !25
  %54 = getelementptr inbounds double, ptr %53, i64 0
  %55 = load double, ptr %54, align 8, !tbaa !18
  store double %55, ptr %17, align 8, !tbaa !18
  %56 = load ptr, ptr %8, align 8, !tbaa !16
  %57 = getelementptr inbounds nuw %struct._generic_N_Vector, ptr %56, i32 0, i32 0
  %58 = load ptr, ptr %57, align 8, !tbaa !22
  %59 = getelementptr inbounds nuw %struct._N_VectorContent_Serial, ptr %58, i32 0, i32 2
  %60 = load ptr, ptr %59, align 8, !tbaa !25
  %61 = getelementptr inbounds double, ptr %60, i64 1
  %62 = load double, ptr %61, align 8, !tbaa !18
  store double %62, ptr %18, align 8, !tbaa !18
  %63 = load ptr, ptr %8, align 8, !tbaa !16
  %64 = getelementptr inbounds nuw %struct._generic_N_Vector, ptr %63, i32 0, i32 0
  %65 = load ptr, ptr %64, align 8, !tbaa !22
  %66 = getelementptr inbounds nuw %struct._N_VectorContent_Serial, ptr %65, i32 0, i32 2
  %67 = load ptr, ptr %66, align 8, !tbaa !25
  %68 = getelementptr inbounds double, ptr %67, i64 2
  %69 = load double, ptr %68, align 8, !tbaa !18
  store double %69, ptr %19, align 8, !tbaa !18
  %70 = load double, ptr %18, align 8, !tbaa !18
  %71 = load double, ptr %17, align 8, !tbaa !18
  %72 = fsub double %70, %71
  store double %72, ptr %20, align 8, !tbaa !18
  %73 = load double, ptr %19, align 8, !tbaa !18
  %74 = load double, ptr %18, align 8, !tbaa !18
  %75 = fsub double %73, %74
  store double %75, ptr %21, align 8, !tbaa !18
  %76 = load double, ptr %14, align 8, !tbaa !18
  %77 = fneg double %76
  %78 = load double, ptr %20, align 8, !tbaa !18
  %79 = fmul double %77, %78
  %80 = load ptr, ptr %9, align 8, !tbaa !16
  %81 = getelementptr inbounds nuw %struct._generic_N_Vector, ptr %80, i32 0, i32 0
  %82 = load ptr, ptr %81, align 8, !tbaa !22
  %83 = getelementptr inbounds nuw %struct._N_VectorContent_Serial, ptr %82, i32 0, i32 2
  %84 = load ptr, ptr %83, align 8, !tbaa !25
  %85 = getelementptr inbounds double, ptr %84, i64 0
  store double %79, ptr %85, align 8, !tbaa !18
  %86 = load double, ptr %15, align 8, !tbaa !18
  %87 = load double, ptr %13, align 8, !tbaa !18
  %88 = fmul double %86, %87
  %89 = load double, ptr %20, align 8, !tbaa !18
  %90 = load double, ptr %16, align 8, !tbaa !18
  %91 = fmul double 2.000000e+00, %90
  %92 = load double, ptr %12, align 8, !tbaa !18
  %93 = fmul double %91, %92
  %94 = load double, ptr %21, align 8, !tbaa !18
  %95 = fmul double %93, %94
  %96 = fneg double %95
  %97 = call double @llvm.fmuladd.f64(double %88, double %89, double %96)
  %98 = load ptr, ptr %9, align 8, !tbaa !16
  %99 = getelementptr inbounds nuw %struct._generic_N_Vector, ptr %98, i32 0, i32 0
  %100 = load ptr, ptr %99, align 8, !tbaa !22
  %101 = getelementptr inbounds nuw %struct._N_VectorContent_Serial, ptr %100, i32 0, i32 2
  %102 = load ptr, ptr %101, align 8, !tbaa !25
  %103 = getelementptr inbounds double, ptr %102, i64 1
  store double %97, ptr %103, align 8, !tbaa !18
  %104 = load double, ptr %15, align 8, !tbaa !18
  %105 = load double, ptr %12, align 8, !tbaa !18
  %106 = fmul double %104, %105
  %107 = load double, ptr %20, align 8, !tbaa !18
  %108 = call double @llvm.fmuladd.f64(double %106, double %107, double -1.000000e+00)
  %109 = load ptr, ptr %9, align 8, !tbaa !16
  %110 = getelementptr inbounds nuw %struct._generic_N_Vector, ptr %109, i32 0, i32 0
  %111 = load ptr, ptr %110, align 8, !tbaa !22
  %112 = getelementptr inbounds nuw %struct._N_VectorContent_Serial, ptr %111, i32 0, i32 2
  %113 = load ptr, ptr %112, align 8, !tbaa !25
  %114 = getelementptr inbounds double, ptr %113, i64 2
  store double %108, ptr %114, align 8, !tbaa !18
  call void @llvm.lifetime.end.p0(i64 8, ptr %21) #6
  call void @llvm.lifetime.end.p0(i64 8, ptr %20) #6
  call void @llvm.lifetime.end.p0(i64 8, ptr %19) #6
  call void @llvm.lifetime.end.p0(i64 8, ptr %18) #6
  call void @llvm.lifetime.end.p0(i64 8, ptr %17) #6
  call void @llvm.lifetime.end.p0(i64 8, ptr %16) #6
  call void @llvm.lifetime.end.p0(i64 8, ptr %15) #6
  call void @llvm.lifetime.end.p0(i64 8, ptr %14) #6
  call void @llvm.lifetime.end.p0(i64 8, ptr %13) #6
  call void @llvm.lifetime.end.p0(i64 8, ptr %12) #6
  call void @llvm.lifetime.end.p0(i64 8, ptr %11) #6
  ret i32 0
}