; Function Attrs: mustprogress nofree norecurse nosync nounwind willreturn memory(readwrite, inaccessiblemem: none) uwtable
define internal noundef i32 @fB(double %0, ptr noundef readonly captures(none) %1, ptr noundef readonly captures(none) %2, ptr noundef readonly captures(none) %3, ptr noundef readonly captures(none) %4) #5 {
  %6 = load double, ptr %4, align 8, !tbaa !9
  %7 = getelementptr inbounds nuw i8, ptr %4, i64 8
  %8 = load double, ptr %7, align 8, !tbaa !9
  %9 = getelementptr inbounds nuw i8, ptr %4, i64 16
  %10 = load double, ptr %9, align 8, !tbaa !9
  %11 = load ptr, ptr %1, align 8, !tbaa !13
  %12 = getelementptr inbounds nuw i8, ptr %11, i64 16
  %13 = load ptr, ptr %12, align 8, !tbaa !16
  %14 = getelementptr inbounds nuw i8, ptr %13, i64 8
  %15 = load double, ptr %14, align 8, !tbaa !9
  %16 = getelementptr inbounds nuw i8, ptr %13, i64 16
  %17 = load double, ptr %16, align 8, !tbaa !9
  %18 = load ptr, ptr %2, align 8, !tbaa !13
  %19 = getelementptr inbounds nuw i8, ptr %18, i64 16
  %20 = load ptr, ptr %19, align 8, !tbaa !16
  %21 = load double, ptr %20, align 8, !tbaa !9
  %22 = getelementptr inbounds nuw i8, ptr %20, i64 8
  %23 = load double, ptr %22, align 8, !tbaa !9
  %24 = getelementptr inbounds nuw i8, ptr %20, i64 16
  %25 = load double, ptr %24, align 8, !tbaa !9
  %26 = fsub double %23, %21
  %27 = fsub double %25, %23
  %28 = fneg double %6
  %29 = fmul double %26, %28
  %30 = load ptr, ptr %3, align 8, !tbaa !13
  %31 = getelementptr inbounds nuw i8, ptr %30, i64 16
  %32 = load ptr, ptr %31, align 8, !tbaa !16
  store double %29, ptr %32, align 8, !tbaa !9
  %33 = fmul double %8, %17
  %34 = fmul double %10, 2.000000e+00
  %35 = fmul double %34, %15
  %36 = fneg double %27
  %37 = fmul double %35, %36
  %38 = tail call double @llvm.fmuladd.f64(double %33, double %26, double %37)
  %39 = getelementptr inbounds nuw i8, ptr %32, i64 8
  store double %38, ptr %39, align 8, !tbaa !9
  %40 = fmul double %8, %15
  %41 = tail call double @llvm.fmuladd.f64(double %40, double %26, double -1.000000e+00)
  %42 = getelementptr inbounds nuw i8, ptr %32, i64 16
  store double %41, ptr %42, align 8, !tbaa !9
  ret i32 0
}